target datalayout = "e-m:e-p270:32:32-p271:32:32-p272:64:64-i64:64-i128:128-f80:128-n8:16:32:64-S128"
target triple = "x86_64-pc-linux-gnu"

%struct._zval_struct = type { %union._zend_value, %union.anon, %union.anon.2 }
%union._zend_value = type { i64 }
%union.anon = type { i32 }
%union.anon.2 = type { i32 }
%struct._zend_op_array = type { i8, [3 x i8], i32, ptr, ptr, ptr, i32, i32, ptr, ptr, ptr, ptr, i32, ptr, i32, i32, i32, ptr, ptr, ptr, ptr, ptr, i32, i32, ptr, ptr, ptr, i32, i32, i32, i32, ptr, ptr, [6 x ptr] }
%struct._zend_op = type { ptr, %union._znode_op, %union._znode_op, %union._znode_op, i32, i32, i8, i8, i8, i8 }
%union._znode_op = type { i32 }

; Function Attrs: alwaysinline nounwind uwtable
define internal zeroext i1 @phpdbg_is_ignored_opcode(i8 noundef zeroext %0) #6 {
  %2 = alloca i8, align 1
  store i8 %0, ptr %2, align 1, !tbaa !11
  %3 = load i8, ptr %2, align 1, !tbaa !11
  %4 = zext i8 %3 to i32
  %5 = icmp eq i32 %4, 0
  br i1 %5, label %74, label %6

6:                                                ; preds = %1
  %7 = load i8, ptr %2, align 1, !tbaa !11
  %8 = zext i8 %7 to i32
  %9 = icmp eq i32 %8, 137
  br i1 %9, label %74, label %10

10:                                               ; preds = %6
  %11 = load i8, ptr %2, align 1, !tbaa !11
  %12 = zext i8 %11 to i32
  %13 = icmp eq i32 %12, 127
  br i1 %13, label %74, label %14

14:                                               ; preds = %10
  %15 = load i8, ptr %2, align 1, !tbaa !11
  %16 = zext i8 %15 to i32
  %17 = icmp eq i32 %16, 70
  br i1 %17, label %74, label %18

18:                                               ; preds = %14
  %19 = load i8, ptr %2, align 1, !tbaa !11
  %20 = zext i8 %19 to i32
  %21 = icmp eq i32 %20, 151
  br i1 %21, label %74, label %22

22:                                               ; preds = %18
  %23 = load i8, ptr %2, align 1, !tbaa !11
  %24 = zext i8 %23 to i32
  %25 = icmp eq i32 %24, 124
  br i1 %25, label %74, label %26

26:                                               ; preds = %22
  %27 = load i8, ptr %2, align 1, !tbaa !11
  %28 = zext i8 %27 to i32
  %29 = icmp eq i32 %28, 143
  br i1 %29, label %74, label %30

30:                                               ; preds = %26
  %31 = load i8, ptr %2, align 1, !tbaa !11
  %32 = zext i8 %31 to i32
  %33 = icmp eq i32 %32, 144
  br i1 %33, label %74, label %34

34:                                               ; preds = %30
  %35 = load i8, ptr %2, align 1, !tbaa !11
  %36 = zext i8 %35 to i32
  %37 = icmp eq i32 %36, 141
  br i1 %37, label %74, label %38

38:                                               ; preds = %34
  %39 = load i8, ptr %2, align 1, !tbaa !11
  %40 = zext i8 %39 to i32
  %41 = icmp eq i32 %40, 145
  br i1 %41, label %74, label %42

42:                                               ; preds = %38
  %43 = load i8, ptr %2, align 1, !tbaa !11
  %44 = zext i8 %43 to i32
  %45 = icmp eq i32 %44, 146
  br i1 %45, label %74, label %46

46:                                               ; preds = %42
  %47 = load i8, ptr %2, align 1, !tbaa !11
  %48 = zext i8 %47 to i32
  %49 = icmp eq i32 %48, 163
  br i1 %49, label %74, label %50

50:                                               ; preds = %46
  %51 = load i8, ptr %2, align 1, !tbaa !11
  %52 = zext i8 %51 to i32
  %53 = icmp eq i32 %52, 105
  br i1 %53, label %74, label %54

54:                                               ; preds = %50
  %55 = load i8, ptr %2, align 1, !tbaa !11
  %56 = zext i8 %55 to i32
  %57 = icmp eq i32 %56, 101
  br i1 %57, label %74, label %58

58:                                               ; preds = %54
  %59 = load i8, ptr %2, align 1, !tbaa !11
  %60 = zext i8 %59 to i32
  %61 = icmp eq i32 %60, 102
  br i1 %61, label %74, label %62

62:                                               ; preds = %58
  %63 = load i8, ptr %2, align 1, !tbaa !11
  %64 = zext i8 %63 to i32
  %65 = icmp eq i32 %64, 103
  br i1 %65, label %74, label %66

66:                                               ; preds = %62
  %67 = load i8, ptr %2, align 1, !tbaa !11
  %68 = zext i8 %67 to i32
  %69 = icmp eq i32 %68, 168
  br i1 %69, label %74, label %70

70:                                               ; preds = %66
  %71 = load i8, ptr %2, align 1, !tbaa !11
  %72 = zext i8 %71 to i32
  %73 = icmp eq i32 %72, 203
  br label %74

74:                                               ; preds = %70, %66, %62, %58, %54, %50, %46, %42, %38, %34, %30, %26, %22, %18, %14, %10, %6, %1
  %75 = phi i1 [ true, %66 ], [ true, %62 ], [ true, %58 ], [ true, %54 ], [ true, %50 ], [ true, %46 ], [ true, %42 ], [ true, %38 ], [ true, %34 ], [ true, %30 ], [ true, %26 ], [ true, %22 ], [ true, %18 ], [ true, %14 ], [ true, %10 ], [ true, %6 ], [ true, %1 ], [ %73, %70 ]
  ret i1 %75
}

; Function Attrs: nounwind uwtable
define internal void @phpdbg_oplog_fill_executable(ptr noundef %0, ptr noundef %1, i1 noundef zeroext %2) #0 {
  %4 = alloca ptr, align 8
  %5 = alloca ptr, align 8
  %6 = alloca i8, align 1
  %7 = alloca ptr, align 8
  %8 = alloca ptr, align 8
  %9 = alloca i64, align 8
  %10 = alloca %struct._zval_struct, align 8
  %11 = alloca ptr, align 8
  %12 = alloca i8, align 1
  %13 = alloca i32, align 4
  store ptr %0, ptr %4, align 8, !tbaa !133
  store ptr %1, ptr %5, align 8, !tbaa !96
  %14 = zext i1 %2 to i8
  store i8 %14, ptr %6, align 1, !tbaa !45
  call void @llvm.lifetime.start.p0(i64 8, ptr %7) #22
  %15 = load ptr, ptr %4, align 8, !tbaa !133
  %16 = getelementptr inbounds nuw %struct._zend_op_array, ptr %15, i32 0, i32 17
  %17 = load ptr, ptr %16, align 8, !tbaa !134
  %18 = load ptr, ptr %4, align 8, !tbaa !133
  %19 = getelementptr inbounds nuw %struct._zend_op_array, ptr %18, i32 0, i32 6
  %20 = load i32, ptr %19, align 8, !tbaa !135
  %21 = zext i32 %20 to i64
  %22 = getelementptr inbounds nuw %struct._zend_op, ptr %17, i64 %21
  %23 = load ptr, ptr %4, align 8, !tbaa !133
  %24 = getelementptr inbounds nuw %struct._zend_op_array, ptr %23, i32 0, i32 2
  %25 = load i32, ptr %24, align 4, !tbaa !136
  %26 = and i32 %25, 16384
  %27 = icmp ne i32 %26, 0
  %28 = xor i1 %27, true
  %29 = xor i1 %28, true
  %30 = zext i1 %29 to i32
  %31 = sext i32 %30 to i64
  %32 = getelementptr inbounds %struct._zend_op, ptr %22, i64 %31
  store ptr %32, ptr %7, align 8, !tbaa !137
  call void @llvm.lifetime.start.p0(i64 8, ptr %8) #22
  %33 = load ptr, ptr %4, align 8, !tbaa !133
  %34 = getelementptr inbounds nuw %struct._zend_op_array, ptr %33, i32 0, i32 17
  %35 = load ptr, ptr %34, align 8, !tbaa !134
  %36 = load ptr, ptr %4, align 8, !tbaa !133
  %37 = getelementptr inbounds nuw %struct._zend_op_array, ptr %36, i32 0, i32 16
  %38 = load i32, ptr %37, align 8, !tbaa !138
  %39 = zext i32 %38 to i64
  %40 = getelementptr inbounds nuw %struct._zend_op, ptr %35, i64 %39
  store ptr %40, ptr %8, align 8, !tbaa !137
  call void @llvm.lifetime.start.p0(i64 8, ptr %9) #22
  call void @llvm.lifetime.start.p0(i64 16, ptr %10) #22
  br label %41

41:                                               ; preds = %3
  call void @llvm.lifetime.start.p0(i64 8, ptr %11) #22
  store ptr %10, ptr %11, align 8, !tbaa !9
  %42 = load ptr, ptr %11, align 8, !tbaa !9
  %43 = getelementptr inbounds nuw %struct._zval_struct, ptr %42, i32 0, i32 0
  store i64 0, ptr %43, align 8, !tbaa !11
  %44 = load ptr, ptr %11, align 8, !tbaa !9
  %45 = getelementptr inbounds nuw %struct._zval_struct, ptr %44, i32 0, i32 1
  store i32 4, ptr %45, align 8, !tbaa !11
  call void @llvm.lifetime.end.p0(i64 8, ptr %11) #22
  br label %46

46:                                               ; preds = %41
  br label %47

47:                                               ; preds = %46
  %48 = load ptr, ptr %4, align 8, !tbaa !133
  %49 = getelementptr inbounds nuw %struct._zend_op_array, ptr %48, i32 0, i32 16
  %50 = load i32, ptr %49, align 8, !tbaa !138
  %51 = icmp uge i32 %50, 1
  br i1 %51, label %52, label %120

52:                                               ; preds = %47
  %53 = load ptr, ptr %8, align 8, !tbaa !137
  %54 = getelementptr inbounds %struct._zend_op, ptr %53, i64 -1
  %55 = getelementptr inbounds nuw %struct._zend_op, ptr %54, i32 0, i32 6
  %56 = load i8, ptr %55, align 4, !tbaa !139
  %57 = zext i8 %56 to i32
  %58 = icmp eq i32 %57, 62
  br i1 %58, label %73, label %59

59:                                               ; preds = %52
  %60 = load ptr, ptr %8, align 8, !tbaa !137
  %61 = getelementptr inbounds %struct._zend_op, ptr %60, i64 -1
  %62 = getelementptr inbounds nuw %struct._zend_op, ptr %61, i32 0, i32 6
  %63 = load i8, ptr %62, align 4, !tbaa !139
  %64 = zext i8 %63 to i32
  %65 = icmp eq i32 %64, 111
  br i1 %65, label %73, label %66

66:                                               ; preds = %59
  %67 = load ptr, ptr %8, align 8, !tbaa !137
  %68 = getelementptr inbounds %struct._zend_op, ptr %67, i64 -1
  %69 = getelementptr inbounds nuw %struct._zend_op, ptr %68, i32 0, i32 6
  %70 = load i8, ptr %69, align 4, !tbaa !139
  %71 = zext i8 %70 to i32
  %72 = icmp eq i32 %71, 161
  br i1 %72, label %73, label %120

73:                                               ; preds = %66, %59, %52
  %74 = load ptr, ptr %4, align 8, !tbaa !133
  %75 = getelementptr inbounds nuw %struct._zend_op_array, ptr %74, i32 0, i32 16
  %76 = load i32, ptr %75, align 8, !tbaa !138
  %77 = icmp ugt i32 %76, 1
  br i1 %77, label %78, label %106

78:                                               ; preds = %73
  %79 = load ptr, ptr %8, align 8, !tbaa !137
  %80 = getelementptr inbounds %struct._zend_op, ptr %79, i64 -2
  %81 = getelementptr inbounds nuw %struct._zend_op, ptr %80, i32 0, i32 6
  %82 = load i8, ptr %81, align 4, !tbaa !139
  %83 = zext i8 %82 to i32
  %84 = icmp eq i32 %83, 62
  br i1 %84, label %117, label %85

85:                                               ; preds = %78
  %86 = load ptr, ptr %8, align 8, !tbaa !137
  %87 = getelementptr inbounds %struct._zend_op, ptr %86, i64 -2
  %88 = getelementptr inbounds nuw %struct._zend_op, ptr %87, i32 0, i32 6
  %89 = load i8, ptr %88, align 4, !tbaa !139
  %90 = zext i8 %89 to i32
  %91 = icmp eq i32 %90, 111
  br i1 %91, label %117, label %92

92:                                               ; preds = %85
  %93 = load ptr, ptr %8, align 8, !tbaa !137
  %94 = getelementptr inbounds %struct._zend_op, ptr %93, i64 -2
  %95 = getelementptr inbounds nuw %struct._zend_op, ptr %94, i32 0, i32 6
  %96 = load i8, ptr %95, align 4, !tbaa !139
  %97 = zext i8 %96 to i32
  %98 = icmp eq i32 %97, 161
  br i1 %98, label %117, label %99

99:                                               ; preds = %92
  %100 = load ptr, ptr %8, align 8, !tbaa !137
  %101 = getelementptr inbounds %struct._zend_op, ptr %100, i64 -2
  %102 = getelementptr inbounds nuw %struct._zend_op, ptr %101, i32 0, i32 6
  %103 = load i8, ptr %102, align 4, !tbaa !139
  %104 = zext i8 %103 to i32
  %105 = icmp eq i32 %104, 108
  br i1 %105, label %117, label %106

106:                                              ; preds = %99, %73
  %107 = load ptr, ptr %4, align 8, !tbaa !133
  %108 = getelementptr inbounds nuw %struct._zend_op_array, ptr %107, i32 0, i32 3
  %109 = load ptr, ptr %108, align 8, !tbaa !140
  %110 = icmp eq ptr %109, null
  br i1 %110, label %117, label %111

111:                                              ; preds = %106
  %112 = load ptr, ptr %8, align 8, !tbaa !137
  %113 = getelementptr inbounds %struct._zend_op, ptr %112, i64 -1
  %114 = getelementptr inbounds nuw %struct._zend_op, ptr %113, i32 0, i32 4
  %115 = load i32, ptr %114, align 4, !tbaa !141
  %116 = icmp eq i32 %115, -1
  br i1 %116, label %117, label %120

117:                                              ; preds = %111, %106, %99, %92, %85, %78
  %118 = load ptr, ptr %8, align 8, !tbaa !137
  %119 = getelementptr inbounds %struct._zend_op, ptr %118, i32 -1
  store ptr %119, ptr %8, align 8, !tbaa !137
  br label %120

120:                                              ; preds = %117, %111, %66, %47
  br label %121

121:                                              ; preds = %170, %120
  %122 = load ptr, ptr %7, align 8, !tbaa !137
  %123 = load ptr, ptr %8, align 8, !tbaa !137
  %124 = icmp ult ptr %122, %123
  br i1 %124, label %125, label %173

125:                                              ; preds = %121
  call void @llvm.lifetime.start.p0(i64 1, ptr %12) #22
  %126 = load ptr, ptr %7, align 8, !tbaa !137
  %127 = getelementptr inbounds nuw %struct._zend_op, ptr %126, i32 0, i32 6
  %128 = load i8, ptr %127, align 4, !tbaa !139
  store i8 %128, ptr %12, align 1, !tbaa !11
  %129 = load i8, ptr %12, align 1, !tbaa !11
  %130 = call zeroext i1 @phpdbg_is_ignored_opcode(i8 noundef zeroext %129)
  br i1 %130, label %131, label %132

131:                                              ; preds = %125
  store i32 6, ptr %13, align 4
  br label %167

132:                                              ; preds = %125
  %133 = load i8, ptr %6, align 1, !tbaa !45, !range !73, !noundef !74
  %134 = trunc i8 %133 to i1
  br i1 %134, label %135, label %144

135:                                              ; preds = %132
  %136 = load ptr, ptr %7, align 8, !tbaa !137
  %137 = load ptr, ptr %4, align 8, !tbaa !133
  %138 = getelementptr inbounds nuw %struct._zend_op_array, ptr %137, i32 0, i32 17
  %139 = load ptr, ptr %138, align 8, !tbaa !134
  %140 = ptrtoint ptr %136 to i64
  %141 = ptrtoint ptr %139 to i64
  %142 = sub i64 %140, %141
  %143 = sdiv exact i64 %142, 32
  store i64 %143, ptr %9, align 8, !tbaa !76
  br label %149

144:                                              ; preds = %132
  %145 = load ptr, ptr %7, align 8, !tbaa !137
  %146 = getelementptr inbounds nuw %struct._zend_op, ptr %145, i32 0, i32 5
  %147 = load i32, ptr %146, align 8, !tbaa !142
  %148 = zext i32 %147 to i64
  store i64 %148, ptr %9, align 8, !tbaa !76
  br label %149

149:                                              ; preds = %144, %135
  %150 = load i8, ptr %12, align 1, !tbaa !11
  %151 = zext i8 %150 to i32
  %152 = icmp eq i32 %151, 68
  br i1 %152, label %153, label %163

153:                                              ; preds = %149
  %154 = load ptr, ptr %7, align 8, !tbaa !137
  %155 = getelementptr inbounds %struct._zend_op, ptr %154, i64 1
  %156 = getelementptr inbounds nuw %struct._zend_op, ptr %155, i32 0, i32 6
  %157 = load i8, ptr %156, align 4, !tbaa !139
  %158 = zext i8 %157 to i32
  %159 = icmp eq i32 %158, 60
  br i1 %159, label %160, label %163

160:                                              ; preds = %153
  %161 = load ptr, ptr %7, align 8, !tbaa !137
  %162 = getelementptr inbounds nuw %struct._zend_op, ptr %161, i32 1
  store ptr %162, ptr %7, align 8, !tbaa !137
  br label %163

163:                                              ; preds = %160, %153, %149
  %164 = load ptr, ptr %5, align 8, !tbaa !96
  %165 = load i64, ptr %9, align 8, !tbaa !76
  %166 = call ptr @zend_hash_index_update(ptr noundef %164, i64 noundef %165, ptr noundef %10)
  store i32 0, ptr %13, align 4
  br label %167

167:                                              ; preds = %163, %131
  call void @llvm.lifetime.end.p0(i64 1, ptr %12) #22
  %168 = load i32, ptr %13, align 4
  switch i32 %168, label %174 [
    i32 0, label %169
    i32 6, label %170
  ]

169:                                              ; preds = %167
  br label %170

170:                                              ; preds = %169, %167
  %171 = load ptr, ptr %7, align 8, !tbaa !137
  %172 = getelementptr inbounds nuw %struct._zend_op, ptr %171, i32 1
  store ptr %172, ptr %7, align 8, !tbaa !137
  br label %121

173:                                              ; preds = %121
  call void @llvm.lifetime.end.p0(i64 16, ptr %10) #22
  call void @llvm.lifetime.end.p0(i64 8, ptr %9) #22
  call void @llvm.lifetime.end.p0(i64 8, ptr %8) #22
  call void @llvm.lifetime.end.p0(i64 8, ptr %7) #22
  ret void

174:                                              ; preds = %167
  unreachable
}