; Function Attrs: nounwind uwtable
define internal fastcc void @phpdbg_oplog_fill_executable(ptr noundef readonly captures(none) %0, ptr noundef %1, i1 noundef zeroext %2) unnamed_addr #0 {
  %4 = alloca %struct._zval_struct, align 8
  %5 = getelementptr inbounds nuw i8, ptr %0, i64 104
  %6 = load ptr, ptr %5, align 8, !tbaa !122
  %7 = getelementptr inbounds nuw i8, ptr %0, i64 32
  %8 = load i32, ptr %7, align 8, !tbaa !123
  %9 = zext i32 %8 to i64
  %10 = getelementptr inbounds nuw %struct._zend_op, ptr %6, i64 %9
  %11 = getelementptr inbounds nuw i8, ptr %0, i64 4
  %12 = load i32, ptr %11, align 4, !tbaa !124
  %13 = lshr i32 %12, 14
  %.lobit = and i32 %13, 1
  %14 = zext nneg i32 %.lobit to i64
  %15 = getelementptr inbounds nuw %struct._zend_op, ptr %10, i64 %14
  %16 = getelementptr inbounds nuw i8, ptr %0, i64 96
  %17 = load i32, ptr %16, align 8, !tbaa !125
  %18 = zext i32 %17 to i64
  %19 = getelementptr inbounds nuw %struct._zend_op, ptr %6, i64 %18
  call void @llvm.lifetime.start.p0(i64 16, ptr nonnull %4) #27
  store i64 0, ptr %4, align 8, !tbaa !4
  %20 = getelementptr inbounds nuw i8, ptr %4, i64 8
  store i32 4, ptr %20, align 8, !tbaa !4
  %.not = icmp eq i32 %17, 0
  br i1 %.not, label %38, label %21

21:                                               ; preds = %3
  %22 = getelementptr inbounds i8, ptr %19, i64 -32
  %23 = getelementptr inbounds i8, ptr %19, i64 -4
  %24 = load i8, ptr %23, align 4, !tbaa !126
  switch i8 %24, label %38 [
    i8 62, label %25
    i8 111, label %25
    i8 -95, label %25
  ]

25:                                               ; preds = %21, %21, %21
  %.not36 = icmp eq i32 %17, 1
  br i1 %.not36, label %29, label %26

26:                                               ; preds = %25
  %27 = getelementptr inbounds i8, ptr %19, i64 -36
  %28 = load i8, ptr %27, align 4, !tbaa !126
  switch i8 %28, label %29 [
    i8 62, label %37
    i8 111, label %37
    i8 -95, label %37
    i8 108, label %37
  ]

29:                                               ; preds = %26, %25
  %30 = getelementptr inbounds nuw i8, ptr %0, i64 8
  %31 = load ptr, ptr %30, align 8, !tbaa !127
  %32 = icmp eq ptr %31, null
  br i1 %32, label %37, label %33

33:                                               ; preds = %29
  %34 = getelementptr inbounds i8, ptr %19, i64 -12
  %35 = load i32, ptr %34, align 4, !tbaa !128
  %36 = icmp eq i32 %35, -1
  br i1 %36, label %37, label %38

37:                                               ; preds = %26, %26, %26, %26, %33, %29
  br label %38

38:                                               ; preds = %21, %37, %33, %3
  %.032 = phi ptr [ %22, %37 ], [ %19, %33 ], [ %19, %3 ], [ %19, %21 ]
  %39 = icmp ult ptr %15, %.032
  br i1 %39, label %.lr.ph, label %._crit_edge

.lr.ph:                                           ; preds = %38
  br i1 %2, label %.lr.ph.split.us, label %.lr.ph.split

.lr.ph.split.us:                                  ; preds = %.lr.ph, %phpdbg_is_ignored_opcode.exit.thread.us
  %.037.us = phi ptr [ %54, %phpdbg_is_ignored_opcode.exit.thread.us ], [ %15, %.lr.ph ]
  %40 = getelementptr inbounds nuw i8, ptr %.037.us, i64 28
  %41 = load i8, ptr %40, align 4, !tbaa !126
  switch i8 %41, label %phpdbg_is_ignored_opcode.exit.us [
    i8 -88, label %phpdbg_is_ignored_opcode.exit.thread.us
    i8 -93, label %phpdbg_is_ignored_opcode.exit.thread.us
    i8 -105, label %phpdbg_is_ignored_opcode.exit.thread.us
    i8 -110, label %phpdbg_is_ignored_opcode.exit.thread.us
    i8 -111, label %phpdbg_is_ignored_opcode.exit.thread.us
    i8 -112, label %phpdbg_is_ignored_opcode.exit.thread.us
    i8 -113, label %phpdbg_is_ignored_opcode.exit.thread.us
    i8 -115, label %phpdbg_is_ignored_opcode.exit.thread.us
    i8 -119, label %phpdbg_is_ignored_opcode.exit.thread.us
    i8 127, label %phpdbg_is_ignored_opcode.exit.thread.us
    i8 124, label %phpdbg_is_ignored_opcode.exit.thread.us
    i8 105, label %phpdbg_is_ignored_opcode.exit.thread.us
    i8 103, label %phpdbg_is_ignored_opcode.exit.thread.us
    i8 102, label %phpdbg_is_ignored_opcode.exit.thread.us
    i8 101, label %phpdbg_is_ignored_opcode.exit.thread.us
    i8 70, label %phpdbg_is_ignored_opcode.exit.thread.us
    i8 0, label %phpdbg_is_ignored_opcode.exit.thread.us
    i8 -53, label %phpdbg_is_ignored_opcode.exit.thread.us
  ]

phpdbg_is_ignored_opcode.exit.us:                 ; preds = %.lr.ph.split.us
  %42 = load ptr, ptr %5, align 8, !tbaa !122
  %43 = ptrtoint ptr %.037.us to i64
  %44 = ptrtoint ptr %42 to i64
  %45 = sub i64 %43, %44
  %46 = ashr exact i64 %45, 5
  %47 = icmp eq i8 %41, 68
  br i1 %47, label %48, label %52

48:                                               ; preds = %phpdbg_is_ignored_opcode.exit.us
  %49 = getelementptr inbounds nuw i8, ptr %.037.us, i64 60
  %50 = load i8, ptr %49, align 4, !tbaa !126
  %51 = icmp eq i8 %50, 60
  %spec.select.idx.us = select i1 %51, i64 32, i64 0
  %spec.select.us = getelementptr inbounds nuw i8, ptr %.037.us, i64 %spec.select.idx.us
  br label %52

52:                                               ; preds = %48, %phpdbg_is_ignored_opcode.exit.us
  %.2.us = phi ptr [ %.037.us, %phpdbg_is_ignored_opcode.exit.us ], [ %spec.select.us, %48 ]
  %53 = call ptr @zend_hash_index_update(ptr noundef %1, i64 noundef %46, ptr noundef nonnull %4) #27
  br label %phpdbg_is_ignored_opcode.exit.thread.us

phpdbg_is_ignored_opcode.exit.thread.us:          ; preds = %52, %.lr.ph.split.us, %.lr.ph.split.us, %.lr.ph.split.us, %.lr.ph.split.us, %.lr.ph.split.us, %.lr.ph.split.us, %.lr.ph.split.us, %.lr.ph.split.us, %.lr.ph.split.us, %.lr.ph.split.us, %.lr.ph.split.us, %.lr.ph.split.us, %.lr.ph.split.us, %.lr.ph.split.us, %.lr.ph.split.us, %.lr.ph.split.us, %.lr.ph.split.us, %.lr.ph.split.us
  %.1.us = phi ptr [ %.2.us, %52 ], [ %.037.us, %.lr.ph.split.us ], [ %.037.us, %.lr.ph.split.us ], [ %.037.us, %.lr.ph.split.us ], [ %.037.us, %.lr.ph.split.us ], [ %.037.us, %.lr.ph.split.us ], [ %.037.us, %.lr.ph.split.us ], [ %.037.us, %.lr.ph.split.us ], [ %.037.us, %.lr.ph.split.us ], [ %.037.us, %.lr.ph.split.us ], [ %.037.us, %.lr.ph.split.us ], [ %.037.us, %.lr.ph.split.us ], [ %.037.us, %.lr.ph.split.us ], [ %.037.us, %.lr.ph.split.us ], [ %.037.us, %.lr.ph.split.us ], [ %.037.us, %.lr.ph.split.us ], [ %.037.us, %.lr.ph.split.us ], [ %.037.us, %.lr.ph.split.us ], [ %.037.us, %.lr.ph.split.us ]
  %54 = getelementptr inbounds nuw i8, ptr %.1.us, i64 32
  %55 = icmp ult ptr %54, %.032
  br i1 %55, label %.lr.ph.split.us, label %._crit_edge

.lr.ph.split:                                     ; preds = %.lr.ph, %phpdbg_is_ignored_opcode.exit.thread
  %.037 = phi ptr [ %68, %phpdbg_is_ignored_opcode.exit.thread ], [ %15, %.lr.ph ]
  %56 = getelementptr inbounds nuw i8, ptr %.037, i64 28
  %57 = load i8, ptr %56, align 4, !tbaa !126
  switch i8 %57, label %phpdbg_is_ignored_opcode.exit [
    i8 -88, label %phpdbg_is_ignored_opcode.exit.thread
    i8 -93, label %phpdbg_is_ignored_opcode.exit.thread
    i8 -105, label %phpdbg_is_ignored_opcode.exit.thread
    i8 -110, label %phpdbg_is_ignored_opcode.exit.thread
    i8 -111, label %phpdbg_is_ignored_opcode.exit.thread
    i8 -112, label %phpdbg_is_ignored_opcode.exit.thread
    i8 -113, label %phpdbg_is_ignored_opcode.exit.thread
    i8 -115, label %phpdbg_is_ignored_opcode.exit.thread
    i8 -119, label %phpdbg_is_ignored_opcode.exit.thread
    i8 127, label %phpdbg_is_ignored_opcode.exit.thread
    i8 124, label %phpdbg_is_ignored_opcode.exit.thread
    i8 105, label %phpdbg_is_ignored_opcode.exit.thread
    i8 103, label %phpdbg_is_ignored_opcode.exit.thread
    i8 102, label %phpdbg_is_ignored_opcode.exit.thread
    i8 101, label %phpdbg_is_ignored_opcode.exit.thread
    i8 70, label %phpdbg_is_ignored_opcode.exit.thread
    i8 0, label %phpdbg_is_ignored_opcode.exit.thread
    i8 -53, label %phpdbg_is_ignored_opcode.exit.thread
  ]

phpdbg_is_ignored_opcode.exit:                    ; preds = %.lr.ph.split
  %58 = getelementptr inbounds nuw i8, ptr %.037, i64 24
  %59 = load i32, ptr %58, align 8, !tbaa !129
  %60 = zext i32 %59 to i64
  %61 = icmp eq i8 %57, 68
  br i1 %61, label %62, label %66

62:                                               ; preds = %phpdbg_is_ignored_opcode.exit
  %63 = getelementptr inbounds nuw i8, ptr %.037, i64 60
  %64 = load i8, ptr %63, align 4, !tbaa !126
  %65 = icmp eq i8 %64, 60
  %spec.select.idx = select i1 %65, i64 32, i64 0
  %spec.select = getelementptr inbounds nuw i8, ptr %.037, i64 %spec.select.idx
  br label %66

66:                                               ; preds = %62, %phpdbg_is_ignored_opcode.exit
  %.2 = phi ptr [ %.037, %phpdbg_is_ignored_opcode.exit ], [ %spec.select, %62 ]
  %67 = call ptr @zend_hash_index_update(ptr noundef %1, i64 noundef %60, ptr noundef nonnull %4) #27
  br label %phpdbg_is_ignored_opcode.exit.thread

phpdbg_is_ignored_opcode.exit.thread:             ; preds = %.lr.ph.split, %.lr.ph.split, %.lr.ph.split, %.lr.ph.split, %.lr.ph.split, %.lr.ph.split, %.lr.ph.split, %.lr.ph.split, %.lr.ph.split, %.lr.ph.split, %.lr.ph.split, %.lr.ph.split, %.lr.ph.split, %.lr.ph.split, %.lr.ph.split, %.lr.ph.split, %.lr.ph.split, %.lr.ph.split, %66
  %.1 = phi ptr [ %.2, %66 ], [ %.037, %.lr.ph.split ], [ %.037, %.lr.ph.split ], [ %.037, %.lr.ph.split ], [ %.037, %.lr.ph.split ], [ %.037, %.lr.ph.split ], [ %.037, %.lr.ph.split ], [ %.037, %.lr.ph.split ], [ %.037, %.lr.ph.split ], [ %.037, %.lr.ph.split ], [ %.037, %.lr.ph.split ], [ %.037, %.lr.ph.split ], [ %.037, %.lr.ph.split ], [ %.037, %.lr.ph.split ], [ %.037, %.lr.ph.split ], [ %.037, %.lr.ph.split ], [ %.037, %.lr.ph.split ], [ %.037, %.lr.ph.split ], [ %.037, %.lr.ph.split ]
  %68 = getelementptr inbounds nuw i8, ptr %.1, i64 32
  %69 = icmp ult ptr %68, %.032
  br i1 %69, label %.lr.ph.split, label %._crit_edge

._crit_edge:                                      ; preds = %phpdbg_is_ignored_opcode.exit.thread, %phpdbg_is_ignored_opcode.exit.thread.us, %38
  call void @llvm.lifetime.end.p0(i64 16, ptr nonnull %4) #27
  ret void
}